(dp1
S'output'
p2
S'The "end" tag is unmatched, please check if you have a starting "block" tag'
p3
sS'layer'
p4
S'ParserContainer'
p5
sS'code'
p6
S'{{extend \'tesslayout.html\'}}\n{{=response.toolbar()}}\n<div class="container-fluid">\n    <div class="jumbotron">\n        {{if filename:}}\n        <img src="{{URL(\'uploads\',filename}}">\n        {{end}}\n    </div>\n</div>\n'
p7
sS'snapshot'
p8
(dp9
sS'traceback'
p10
S'None\n'
p11
s.